; Function Attrs: mustprogress nofree nounwind willreturn memory(read, inaccessiblemem: none) uwtable
define noundef zeroext i1 @_ZNK6icu_7717StringTrieBuilder4NodeeqERKS1_(ptr noundef nonnull readonly align 8 dereferenceable(16) %0, ptr noundef nonnull readonly align 8 dereferenceable(16) %1) unnamed_addr #11 align 2 {
  %3 = icmp eq ptr %0, %1
  br i1 %3, label %_ZNKSt9type_infoeqERKS_.exit.thread6, label %4

4:                                                ; preds = %2
  %5 = load ptr, ptr %0, align 8, !tbaa !3
  %6 = getelementptr inbounds i8, ptr %5, i64 -8
  %7 = load ptr, ptr %6, align 8
  %8 = load ptr, ptr %1, align 8, !tbaa !3
  %9 = getelementptr inbounds i8, ptr %8, i64 -8
  %10 = load ptr, ptr %9, align 8
  %11 = getelementptr inbounds nuw i8, ptr %7, i64 8
  %12 = load ptr, ptr %11, align 8, !tbaa !52
  %13 = getelementptr inbounds nuw i8, ptr %10, i64 8
  %14 = load ptr, ptr %13, align 8, !tbaa !52
  %15 = icmp eq ptr %12, %14
  br i1 %15, label %_ZNKSt9type_infoeqERKS_.exit.thread, label %16

16:                                               ; preds = %4
  %17 = load i8, ptr %12, align 1, !tbaa !19
  %.not.i = icmp eq i8 %17, 42
  br i1 %.not.i, label %_ZNKSt9type_infoeqERKS_.exit.thread6, label %_ZNKSt9type_infoeqERKS_.exit

_ZNKSt9type_infoeqERKS_.exit:                     ; preds = %16
  %18 = load i8, ptr %14, align 1, !tbaa !19
  %19 = icmp eq i8 %18, 42
  %.idx.i.i = zext i1 %19 to i64
  %20 = getelementptr inbounds nuw i8, ptr %14, i64 %.idx.i.i
  %21 = tail call i32 @strcmp(ptr noundef nonnull dereferenceable(1) %12, ptr noundef nonnull dereferenceable(1) %20) #16
  %22 = icmp eq i32 %21, 0
  br i1 %22, label %_ZNKSt9type_infoeqERKS_.exit.thread, label %_ZNKSt9type_infoeqERKS_.exit.thread6

_ZNKSt9type_infoeqERKS_.exit.thread:              ; preds = %4, %_ZNKSt9type_infoeqERKS_.exit
  %23 = getelementptr inbounds nuw i8, ptr %0, i64 8
  %24 = load i32, ptr %23, align 8, !tbaa !14
  %25 = getelementptr inbounds nuw i8, ptr %1, i64 8
  %26 = load i32, ptr %25, align 8, !tbaa !14
  %27 = icmp eq i32 %24, %26
  br label %_ZNKSt9type_infoeqERKS_.exit.thread6

_ZNKSt9type_infoeqERKS_.exit.thread6:             ; preds = %16, %_ZNKSt9type_infoeqERKS_.exit, %_ZNKSt9type_infoeqERKS_.exit.thread, %2
  %28 = phi i1 [ true, %2 ], [ false, %_ZNKSt9type_infoeqERKS_.exit ], [ %27, %_ZNKSt9type_infoeqERKS_.exit.thread ], [ false, %16 ]
  ret i1 %28
}